target datalayout = "e-m:e-p270:32:32-p271:32:32-p272:64:64-i64:64-i128:128-f80:128-n8:16:32:64-S128"
target triple = "x86_64-pc-linux-gnu"

%struct.prte_process_info_t = type { %struct.pmix_proc, %struct.pmix_proc, ptr, %struct.pmix_proc, i32, i32, i32, ptr, ptr, i32, i8, ptr, i16, ptr, ptr, i8, ptr, i8 }
%struct.pmix_proc = type { [256 x i8], i32 }
%struct.pmix_mca_base_framework_t = type { ptr, ptr, ptr, ptr, ptr, ptr, i32, i32, ptr, ptr, i32, i32, %struct.pmix_list_t, %struct.pmix_list_t }
%struct.pmix_list_t = type { %struct.pmix_object_t, %struct.pmix_list_item_t, i64 }
%struct.pmix_object_t = type { %union.pthread_mutex_t, ptr, i32, %struct.pmix_tma }
%union.pthread_mutex_t = type { %struct.__pthread_mutex_s }
%struct.__pthread_mutex_s = type { i32, i32, i32, i32, i32, i16, i16, %struct.__pthread_internal_list }
%struct.__pthread_internal_list = type { ptr, ptr }
%struct.pmix_tma = type { ptr, ptr, ptr, ptr, ptr, ptr, ptr, ptr }
%struct.pmix_list_item_t = type { %struct.pmix_object_t, ptr, ptr, i32 }
%struct.pmix_output_desc_t = type { i8, i8, i32, i8, i32, ptr, ptr, i32, ptr, i32, i8, i8, i8, i8, ptr, i32, i32 }
%struct.prte_state_base_module_1_0_0_t = type { ptr, ptr, ptr, ptr, ptr, ptr, ptr, ptr, ptr, ptr }
%struct.timeval = type { i64, i64 }
%struct.pmix_data_buffer = type { ptr, ptr, ptr, i64, i64 }
%struct.prte_job_t = type { %struct.pmix_list_item_t, i32, ptr, ptr, [256 x i8], ptr, i32, i32, ptr, ptr, i32, i32, i32, i32, ptr, ptr, ptr, i32, i32, i32, i32, i32, i32, i32, %struct.pmix_proc, i32, i16, %struct.pmix_list_t, %struct.pmix_data_buffer, %struct.pmix_list_t, [256 x i8], i32, ptr, %struct.pmix_cli_result_t }
%struct.pmix_cli_result_t = type { %struct.pmix_object_t, %struct.pmix_list_t, ptr }

@prte_process_info = external global %struct.prte_process_info_t, align 8
@pmix_output_info = external global [0 x %struct.pmix_output_desc_t], align 8
@prte_state_base_framework = external global %struct.pmix_mca_base_framework_t, align 8
@.str.5 = private unnamed_addr constant [42 x i8] c"%s [%f] ACTIVATE JOB %s STATE %s AT %s:%d\00", align 1
@.str.6 = private unnamed_addr constant [5 x i8] c"NULL\00", align 1
@.str.7 = private unnamed_addr constant [31 x i8] c"base/plm_base_launch_support.c\00", align 1
@prte_state = external global %struct.prte_state_base_module_1_0_0_t, align 8

; Function Attrs: nounwind uwtable
define internal void @files_ready(i32 noundef %0, ptr noundef %1) #0 {
  %3 = alloca i32, align 4
  %4 = alloca ptr, align 8
  %5 = alloca ptr, align 8
  %6 = alloca ptr, align 8
  %7 = alloca double, align 8
  %8 = alloca %struct.timeval, align 8
  %9 = alloca ptr, align 8
  %10 = alloca double, align 8
  %11 = alloca %struct.timeval, align 8
  store i32 %0, ptr %3, align 4, !tbaa !29
  store ptr %1, ptr %4, align 8, !tbaa !3
  call void @llvm.lifetime.start.p0(i64 8, ptr %5) #13
  %12 = load ptr, ptr %4, align 8, !tbaa !3
  store ptr %12, ptr %5, align 8, !tbaa !3
  %13 = load i32, ptr %3, align 4, !tbaa !29
  %14 = icmp ne i32 0, %13
  br i1 %14, label %15, label %67

15:                                               ; preds = %2
  br label %16

16:                                               ; preds = %15
  call void @llvm.lifetime.start.p0(i64 8, ptr %6) #13
  %17 = load ptr, ptr %5, align 8, !tbaa !3
  store ptr %17, ptr %6, align 8, !tbaa !3
  %18 = load i32, ptr getelementptr inbounds nuw (%struct.pmix_mca_base_framework_t, ptr @prte_state_base_framework, i32 0, i32 10), align 8, !tbaa !73
  %19 = icmp sgt i32 %18, 0
  br i1 %19, label %20, label %62

20:                                               ; preds = %16
  call void @llvm.lifetime.start.p0(i64 8, ptr %7) #13
  store double 0.000000e+00, ptr %7, align 8, !tbaa !74
  br label %21

21:                                               ; preds = %20
  call void @llvm.lifetime.start.p0(i64 16, ptr %8) #13
  %22 = call i32 @gettimeofday(ptr noundef %8, ptr noundef null) #13
  %23 = getelementptr inbounds nuw %struct.timeval, ptr %8, i32 0, i32 0
  %24 = load i64, ptr %23, align 8, !tbaa !76
  %25 = sitofp i64 %24 to double
  store double %25, ptr %7, align 8, !tbaa !74
  %26 = getelementptr inbounds nuw %struct.timeval, ptr %8, i32 0, i32 1
  %27 = load i64, ptr %26, align 8, !tbaa !77
  %28 = sitofp i64 %27 to double
  %29 = fdiv double %28, 1.000000e+06
  %30 = load double, ptr %7, align 8, !tbaa !74
  %31 = fadd double %30, %29
  store double %31, ptr %7, align 8, !tbaa !74
  call void @llvm.lifetime.end.p0(i64 16, ptr %8) #13
  br label %32

32:                                               ; preds = %21
  br label %33

33:                                               ; preds = %32
  %34 = load i32, ptr getelementptr inbounds nuw (%struct.pmix_mca_base_framework_t, ptr @prte_state_base_framework, i32 0, i32 11), align 4, !tbaa !62
  %35 = icmp sge i32 %34, 0
  br i1 %35, label %36, label %61

36:                                               ; preds = %33
  %37 = load i32, ptr getelementptr inbounds nuw (%struct.pmix_mca_base_framework_t, ptr @prte_state_base_framework, i32 0, i32 11), align 4, !tbaa !62
  %38 = icmp slt i32 %37, 64
  br i1 %38, label %39, label %61

39:                                               ; preds = %36
  %40 = load i32, ptr getelementptr inbounds nuw (%struct.pmix_mca_base_framework_t, ptr @prte_state_base_framework, i32 0, i32 11), align 4, !tbaa !62
  %41 = sext i32 %40 to i64
  %42 = getelementptr inbounds [0 x %struct.pmix_output_desc_t], ptr @pmix_output_info, i64 0, i64 %41
  %43 = getelementptr inbounds nuw %struct.pmix_output_desc_t, ptr %42, i32 0, i32 2
  %44 = load i32, ptr %43, align 4, !tbaa !65
  %45 = icmp sge i32 %44, 1
  br i1 %45, label %46, label %61

46:                                               ; preds = %39
  %47 = load i32, ptr getelementptr inbounds nuw (%struct.pmix_mca_base_framework_t, ptr @prte_state_base_framework, i32 0, i32 11), align 4, !tbaa !62
  %48 = call ptr @prte_util_print_name_args(ptr noundef @prte_process_info)
  %49 = load double, ptr %7, align 8, !tbaa !74
  %50 = load ptr, ptr %6, align 8, !tbaa !3
  %51 = icmp eq ptr null, %50
  br i1 %51, label %52, label %53

52:                                               ; preds = %46
  br label %58

53:                                               ; preds = %46
  %54 = load ptr, ptr %6, align 8, !tbaa !3
  %55 = getelementptr inbounds nuw %struct.prte_job_t, ptr %54, i32 0, i32 4
  %56 = getelementptr inbounds [256 x i8], ptr %55, i64 0, i64 0
  %57 = call ptr @prte_util_print_jobids(ptr noundef %56)
  br label %58

58:                                               ; preds = %53, %52
  %59 = phi ptr [ @.str.6, %52 ], [ %57, %53 ]
  %60 = call ptr @prte_job_state_to_str(i32 noundef 71)
  call void (i32, ptr, ...) @pmix_output(i32 noundef %47, ptr noundef @.str.5, ptr noundef %48, double noundef %49, ptr noundef %59, ptr noundef %60, ptr noundef @.str.7, i32 noundef 227)
  br label %61

61:                                               ; preds = %58, %39, %36, %33
  call void @llvm.lifetime.end.p0(i64 8, ptr %7) #13
  br label %62

62:                                               ; preds = %61, %16
  %63 = load ptr, ptr getelementptr inbounds nuw (%struct.prte_state_base_module_1_0_0_t, ptr @prte_state, i32 0, i32 2), align 8, !tbaa !78
  %64 = load ptr, ptr %6, align 8, !tbaa !3
  call void %63(ptr noundef %64, i32 noundef 71)
  call void @llvm.lifetime.end.p0(i64 8, ptr %6) #13
  br label %65

65:                                               ; preds = %62
  br label %66

66:                                               ; preds = %65
  br label %119

67:                                               ; preds = %2
  br label %68

68:                                               ; preds = %67
  call void @llvm.lifetime.start.p0(i64 8, ptr %9) #13
  %69 = load ptr, ptr %5, align 8, !tbaa !3
  store ptr %69, ptr %9, align 8, !tbaa !3
  %70 = load i32, ptr getelementptr inbounds nuw (%struct.pmix_mca_base_framework_t, ptr @prte_state_base_framework, i32 0, i32 10), align 8, !tbaa !73
  %71 = icmp sgt i32 %70, 0
  br i1 %71, label %72, label %114

72:                                               ; preds = %68
  call void @llvm.lifetime.start.p0(i64 8, ptr %10) #13
  store double 0.000000e+00, ptr %10, align 8, !tbaa !74
  br label %73

73:                                               ; preds = %72
  call void @llvm.lifetime.start.p0(i64 16, ptr %11) #13
  %74 = call i32 @gettimeofday(ptr noundef %11, ptr noundef null) #13
  %75 = getelementptr inbounds nuw %struct.timeval, ptr %11, i32 0, i32 0
  %76 = load i64, ptr %75, align 8, !tbaa !76
  %77 = sitofp i64 %76 to double
  store double %77, ptr %10, align 8, !tbaa !74
  %78 = getelementptr inbounds nuw %struct.timeval, ptr %11, i32 0, i32 1
  %79 = load i64, ptr %78, align 8, !tbaa !77
  %80 = sitofp i64 %79 to double
  %81 = fdiv double %80, 1.000000e+06
  %82 = load double, ptr %10, align 8, !tbaa !74
  %83 = fadd double %82, %81
  store double %83, ptr %10, align 8, !tbaa !74
  call void @llvm.lifetime.end.p0(i64 16, ptr %11) #13
  br label %84

84:                                               ; preds = %73
  br label %85

85:                                               ; preds = %84
  %86 = load i32, ptr getelementptr inbounds nuw (%struct.pmix_mca_base_framework_t, ptr @prte_state_base_framework, i32 0, i32 11), align 4, !tbaa !62
  %87 = icmp sge i32 %86, 0
  br i1 %87, label %88, label %113

88:                                               ; preds = %85
  %89 = load i32, ptr getelementptr inbounds nuw (%struct.pmix_mca_base_framework_t, ptr @prte_state_base_framework, i32 0, i32 11), align 4, !tbaa !62
  %90 = icmp slt i32 %89, 64
  br i1 %90, label %91, label %113

91:                                               ; preds = %88
  %92 = load i32, ptr getelementptr inbounds nuw (%struct.pmix_mca_base_framework_t, ptr @prte_state_base_framework, i32 0, i32 11), align 4, !tbaa !62
  %93 = sext i32 %92 to i64
  %94 = getelementptr inbounds [0 x %struct.pmix_output_desc_t], ptr @pmix_output_info, i64 0, i64 %93
  %95 = getelementptr inbounds nuw %struct.pmix_output_desc_t, ptr %94, i32 0, i32 2
  %96 = load i32, ptr %95, align 4, !tbaa !65
  %97 = icmp sge i32 %96, 1
  br i1 %97, label %98, label %113

98:                                               ; preds = %91
  %99 = load i32, ptr getelementptr inbounds nuw (%struct.pmix_mca_base_framework_t, ptr @prte_state_base_framework, i32 0, i32 11), align 4, !tbaa !62
  %100 = call ptr @prte_util_print_name_args(ptr noundef @prte_process_info)
  %101 = load double, ptr %10, align 8, !tbaa !74
  %102 = load ptr, ptr %9, align 8, !tbaa !3
  %103 = icmp eq ptr null, %102
  br i1 %103, label %104, label %105

104:                                              ; preds = %98
  br label %110

105:                                              ; preds = %98
  %106 = load ptr, ptr %9, align 8, !tbaa !3
  %107 = getelementptr inbounds nuw %struct.prte_job_t, ptr %106, i32 0, i32 4
  %108 = getelementptr inbounds [256 x i8], ptr %107, i64 0, i64 0
  %109 = call ptr @prte_util_print_jobids(ptr noundef %108)
  br label %110

110:                                              ; preds = %105, %104
  %111 = phi ptr [ @.str.6, %104 ], [ %109, %105 ]
  %112 = call ptr @prte_job_state_to_str(i32 noundef 5)
  call void (i32, ptr, ...) @pmix_output(i32 noundef %99, ptr noundef @.str.5, ptr noundef %100, double noundef %101, ptr noundef %111, ptr noundef %112, ptr noundef @.str.7, i32 noundef 229)
  br label %113

113:                                              ; preds = %110, %91, %88, %85
  call void @llvm.lifetime.end.p0(i64 8, ptr %10) #13
  br label %114

114:                                              ; preds = %113, %68
  %115 = load ptr, ptr getelementptr inbounds nuw (%struct.prte_state_base_module_1_0_0_t, ptr @prte_state, i32 0, i32 2), align 8, !tbaa !78
  %116 = load ptr, ptr %9, align 8, !tbaa !3
  call void %115(ptr noundef %116, i32 noundef 5)
  call void @llvm.lifetime.end.p0(i64 8, ptr %9) #13
  br label %117

117:                                              ; preds = %114
  br label %118

118:                                              ; preds = %117
  br label %119

119:                                              ; preds = %118, %66
  call void @llvm.lifetime.end.p0(i64 8, ptr %5) #13
  ret void
}